#include <math.h>
#include <stdio.h>
#include <stdlib.h>
#include <string.h>

main()
{
  int n,m,k;
  int i;
  n>0;
  scanf("%d",&n);      
for(;;i++)
{ 
  if(n==1)  printf("End");
  else if(n%2==0)
    {
       m=n/2;
       printf("%d/2=%d\n",n,m); 
       n=m;
       continue;       
    }
  else  
    {
        m=n*3+1;
        printf("%d*3+1=%d\n",n,m);
        n=m;
        continue;       
    }
    break;    
}          
}