; ModuleID = '34/3152.c'
source_filename = "34/3152.c"
target datalayout = "e-m:e-p270:32:32-p271:32:32-p272:64:64-i64:64-f80:128-n8:16:32:64-S128"
target triple = "x86_64-pc-linux-gnu"

@.str = private unnamed_addr constant [3 x i8] c"%d\00", align 1
@.str.1 = private unnamed_addr constant [4 x i8] c"End\00", align 1
@.str.2 = private unnamed_addr constant [9 x i8] c"%d/2=%d\0A\00", align 1
@.str.3 = private unnamed_addr constant [11 x i8] c"%d*3+1=%d\0A\00", align 1

; Function Attrs: noinline nounwind uwtable
define dso_local i32 @main() #0 {
  %1 = alloca i32, align 4
  %2 = alloca i32, align 4
  %3 = alloca i32, align 4
  %4 = alloca i32, align 4
  %5 = alloca i32, align 4
  store i32 0, i32* %1, align 4
  %6 = load i32, i32* %2, align 4
  %7 = icmp sgt i32 %6, 0
  %8 = zext i1 %7 to i32
  %9 = call i32 (i8*, ...) @__isoc99_scanf(i8* getelementptr inbounds ([3 x i8], [3 x i8]* @.str, i64 0, i64 0), i32* %2)
  br label %10

10:                                               ; preds = %35, %0
  %11 = load i32, i32* %2, align 4
  %12 = icmp eq i32 %11, 1
  br i1 %12, label %13, label %15

13:                                               ; preds = %10
  %14 = call i32 (i8*, ...) @printf(i8* getelementptr inbounds ([4 x i8], [4 x i8]* @.str.1, i64 0, i64 0))
  br label %34

15:                                               ; preds = %10
  %16 = load i32, i32* %2, align 4
  %17 = srem i32 %16, 2
  %18 = icmp eq i32 %17, 0
  br i1 %18, label %19, label %26

19:                                               ; preds = %15
  %20 = load i32, i32* %2, align 4
  %21 = sdiv i32 %20, 2
  store i32 %21, i32* %3, align 4
  %22 = load i32, i32* %2, align 4
  %23 = load i32, i32* %3, align 4
  %24 = call i32 (i8*, ...) @printf(i8* getelementptr inbounds ([9 x i8], [9 x i8]* @.str.2, i64 0, i64 0), i32 %22, i32 %23)
  %25 = load i32, i32* %3, align 4
  store i32 %25, i32* %2, align 4
  br label %35

26:                                               ; preds = %15
  %27 = load i32, i32* %2, align 4
  %28 = mul nsw i32 %27, 3
  %29 = add nsw i32 %28, 1
  store i32 %29, i32* %3, align 4
  %30 = load i32, i32* %2, align 4
  %31 = load i32, i32* %3, align 4
  %32 = call i32 (i8*, ...) @printf(i8* getelementptr inbounds ([11 x i8], [11 x i8]* @.str.3, i64 0, i64 0), i32 %30, i32 %31)
  %33 = load i32, i32* %3, align 4
  store i32 %33, i32* %2, align 4
  br label %35

34:                                               ; preds = %13
  br label %38

35:                                               ; preds = %26, %19
  %36 = load i32, i32* %5, align 4
  %37 = add nsw i32 %36, 1
  store i32 %37, i32* %5, align 4
  br label %10

38:                                               ; preds = %34
  %39 = load i32, i32* %1, align 4
  ret i32 %39
}

declare dso_local i32 @__isoc99_scanf(i8*, ...) #1

declare dso_local i32 @printf(i8*, ...) #1


!llvm.module.flags = !{!0}
!llvm.ident = !{!1}

!0 = !{i32 1, !"wchar_size", i32 4}
!1 = !{!"clang version 10.0.0-4ubuntu1 "}
